; Function Attrs: nounwind uwtable
define ptr @l_Lean_Meta_MatcherApp_transform___rarg___lambda__24___boxed(ptr noundef readonly captures(none) %0) #1 {
  %2 = load ptr, ptr %0, align 8, !tbaa !4
  %3 = getelementptr inbounds nuw i8, ptr %0, i64 8
  %4 = load ptr, ptr %3, align 8, !tbaa !4
  %5 = getelementptr inbounds nuw i8, ptr %0, i64 16
  %6 = load ptr, ptr %5, align 8, !tbaa !4
  %7 = getelementptr inbounds nuw i8, ptr %0, i64 24
  %8 = load ptr, ptr %7, align 8, !tbaa !4
  %9 = getelementptr inbounds nuw i8, ptr %0, i64 32
  %10 = load ptr, ptr %9, align 8, !tbaa !4
  %11 = getelementptr inbounds nuw i8, ptr %0, i64 40
  %12 = load ptr, ptr %11, align 8, !tbaa !4
  %13 = getelementptr inbounds nuw i8, ptr %0, i64 48
  %14 = load ptr, ptr %13, align 8, !tbaa !4
  %15 = getelementptr inbounds nuw i8, ptr %0, i64 56
  %16 = load ptr, ptr %15, align 8, !tbaa !4
  %17 = getelementptr inbounds nuw i8, ptr %0, i64 64
  %18 = load ptr, ptr %17, align 8, !tbaa !4
  %19 = getelementptr inbounds nuw i8, ptr %0, i64 72
  %20 = load ptr, ptr %19, align 8, !tbaa !4
  %21 = getelementptr inbounds nuw i8, ptr %0, i64 80
  %22 = load ptr, ptr %21, align 8, !tbaa !4
  %23 = getelementptr inbounds nuw i8, ptr %0, i64 88
  %24 = load ptr, ptr %23, align 8, !tbaa !4
  %25 = getelementptr inbounds nuw i8, ptr %0, i64 96
  %26 = load ptr, ptr %25, align 8, !tbaa !4
  %27 = getelementptr inbounds nuw i8, ptr %0, i64 104
  %28 = load ptr, ptr %27, align 8, !tbaa !4
  %29 = getelementptr inbounds nuw i8, ptr %0, i64 112
  %30 = load ptr, ptr %29, align 8, !tbaa !4
  %31 = getelementptr inbounds nuw i8, ptr %0, i64 120
  %32 = load ptr, ptr %31, align 8, !tbaa !4
  %33 = getelementptr inbounds nuw i8, ptr %0, i64 128
  %34 = load ptr, ptr %33, align 8, !tbaa !4
  %35 = getelementptr inbounds nuw i8, ptr %0, i64 136
  %36 = load ptr, ptr %35, align 8, !tbaa !4
  %37 = getelementptr inbounds nuw i8, ptr %0, i64 144
  %38 = load ptr, ptr %37, align 8, !tbaa !4
  %39 = getelementptr inbounds nuw i8, ptr %0, i64 152
  %40 = load ptr, ptr %39, align 8, !tbaa !4
  %41 = getelementptr inbounds nuw i8, ptr %0, i64 160
  %42 = load ptr, ptr %41, align 8, !tbaa !4
  %43 = getelementptr inbounds nuw i8, ptr %0, i64 168
  %44 = load ptr, ptr %43, align 8, !tbaa !4
  %45 = getelementptr i8, ptr %26, i64 8
  %.val = load i64, ptr %45, align 8, !tbaa !12
  %46 = ptrtoint ptr %26 to i64
  %47 = and i64 %46, 1
  %.not = icmp eq i64 %47, 0
  br i1 %.not, label %48, label %lean_dec.exit51

48:                                               ; preds = %1
  %49 = load i32, ptr %26, align 4, !tbaa !8
  %50 = icmp sgt i32 %49, 1
  br i1 %50, label %51, label %53, !prof !11

51:                                               ; preds = %48
  %52 = add nsw i32 %49, -1
  store i32 %52, ptr %26, align 4, !tbaa !8
  br label %lean_dec.exit51

53:                                               ; preds = %48
  %.not.i = icmp eq i32 %49, 0
  br i1 %.not.i, label %lean_dec.exit51, label %54

54:                                               ; preds = %53
  tail call void @lean_dec_ref_cold(ptr noundef nonnull %26) #4
  br label %lean_dec.exit51

lean_dec.exit51:                                  ; preds = %54, %53, %51, %1
  %55 = ptrtoint ptr %36 to i64
  %56 = and i64 %55, 1
  %.not56 = icmp eq i64 %56, 0
  br i1 %.not56, label %57, label %lean_dec.exit50

57:                                               ; preds = %lean_dec.exit51
  %58 = load i32, ptr %36, align 4, !tbaa !8
  %59 = icmp sgt i32 %58, 1
  br i1 %59, label %60, label %62, !prof !11

60:                                               ; preds = %57
  %61 = add nsw i32 %58, -1
  store i32 %61, ptr %36, align 4, !tbaa !8
  br label %lean_dec.exit50

62:                                               ; preds = %57
  %.not.i52 = icmp eq i32 %58, 0
  br i1 %.not.i52, label %lean_dec.exit50, label %63

63:                                               ; preds = %62
  tail call void @lean_dec_ref_cold(ptr noundef nonnull %36) #4
  br label %lean_dec.exit50

lean_dec.exit50:                                  ; preds = %63, %62, %60, %lean_dec.exit51
  %64 = ptrtoint ptr %38 to i64
  %65 = and i64 %64, 1
  %.not57 = icmp eq i64 %65, 0
  br i1 %.not57, label %66, label %lean_dec.exit

66:                                               ; preds = %lean_dec.exit50
  %67 = load i32, ptr %38, align 4, !tbaa !8
  %68 = icmp sgt i32 %67, 1
  br i1 %68, label %69, label %71, !prof !11

69:                                               ; preds = %66
  %70 = add nsw i32 %67, -1
  store i32 %70, ptr %38, align 4, !tbaa !8
  br label %lean_dec.exit

71:                                               ; preds = %66
  %.not.i54 = icmp eq i32 %67, 0
  br i1 %.not.i54, label %lean_dec.exit, label %72

72:                                               ; preds = %71
  tail call void @lean_dec_ref_cold(ptr noundef nonnull %38) #4
  br label %lean_dec.exit

lean_dec.exit:                                    ; preds = %72, %71, %69, %lean_dec.exit50
  %73 = lshr i64 %64, 1
  %74 = trunc i64 %73 to i8
  %75 = lshr i64 %55, 1
  %76 = trunc i64 %75 to i8
  %77 = tail call ptr @l_Lean_Meta_MatcherApp_transform___rarg___lambda__24(ptr noundef %2, ptr noundef %4, ptr noundef %6, ptr noundef %8, ptr noundef %10, ptr noundef %12, ptr noundef %14, ptr noundef %16, ptr noundef %18, ptr noundef %20, ptr noundef %22, ptr noundef %24, i64 noundef %.val, ptr noundef %28, ptr noundef %30, ptr noundef %32, ptr noundef %34, i8 noundef zeroext %76, i8 noundef zeroext %74, ptr noundef %40, ptr noundef %42, ptr noundef %44)
  ret ptr %77
}